; ModuleID = 'source-C-CXX/14/2177.c'
source_filename = "source-C-CXX/14/2177.c"
target datalayout = "e-m:e-p270:32:32-p271:32:32-p272:64:64-i64:64-f80:128-n8:16:32:64-S128"
target triple = "x86_64-pc-linux-gnu"

@.str = private unnamed_addr constant [3 x i8] c"%d\00", align 1

; Function Attrs: mustprogress nofree norecurse nosync nounwind readnone sspstrong uwtable willreturn
define dso_local i32 @abs(i32 %0) local_unnamed_addr #0 {
  %2 = tail call i32 @llvm.abs.i32(i32 %0, i1 true)
  ret i32 %2
}

; Function Attrs: nofree nounwind sspstrong uwtable
define dso_local i32 @main() local_unnamed_addr #1 {
  %1 = alloca i32, align 4
  %2 = alloca i32, align 4
  %3 = bitcast i32* %1 to i8*
  call void @llvm.lifetime.start.p0i8(i64 4, i8* nonnull %3) #5
  %4 = bitcast i32* %2 to i8*
  call void @llvm.lifetime.start.p0i8(i64 4, i8* nonnull %4) #5
  %5 = call i32 (i8*, ...) @__isoc99_scanf(i8* getelementptr inbounds ([3 x i8], [3 x i8]* @.str, i64 0, i64 0), i32* nonnull %1)
  %6 = load i32, i32* %1, align 4, !tbaa !5
  %7 = mul nsw i32 %6, %6
  %8 = icmp eq i32 %7, 0
  br i1 %8, label %27, label %9

9:                                                ; preds = %0, %9
  %10 = phi i64 [ %20, %9 ], [ undef, %0 ]
  %11 = phi i64 [ %21, %9 ], [ undef, %0 ]
  %12 = phi i64 [ %22, %9 ], [ 0, %0 ]
  %13 = phi i32 [ %19, %9 ], [ 0, %0 ]
  %14 = call i32 (i8*, ...) @__isoc99_scanf(i8* getelementptr inbounds ([3 x i8], [3 x i8]* @.str, i64 0, i64 0), i32* nonnull %2)
  %15 = load i32, i32* %2, align 4, !tbaa !5
  %16 = icmp eq i32 %15, 0
  %17 = icmp eq i32 %13, 0
  %18 = select i1 %16, i1 %17, i1 false
  %19 = select i1 %18, i32 1, i32 %13
  %20 = select i1 %18, i64 %12, i64 %10
  %21 = select i1 %16, i64 %12, i64 %11
  %22 = add nuw nsw i64 %12, 1
  %23 = load i32, i32* %1, align 4, !tbaa !5
  %24 = mul nsw i32 %23, %23
  %25 = zext i32 %24 to i64
  %26 = icmp ult i64 %22, %25
  br i1 %26, label %9, label %27, !llvm.loop !9

27:                                               ; preds = %9, %0
  %28 = phi i64 [ undef, %0 ], [ %21, %9 ]
  %29 = phi i64 [ undef, %0 ], [ %20, %9 ]
  %30 = phi i32 [ %6, %0 ], [ %23, %9 ]
  %31 = sext i32 %30 to i64
  %32 = sdiv i64 %29, %31
  %33 = trunc i64 %32 to i32
  %34 = srem i64 %29, %31
  %35 = trunc i64 %34 to i32
  %36 = sdiv i64 %28, %31
  %37 = trunc i64 %36 to i32
  %38 = srem i64 %28, %31
  %39 = trunc i64 %38 to i32
  %40 = sub nsw i32 %33, %37
  %41 = call i32 @llvm.abs.i32(i32 %40, i1 true)
  %42 = add nsw i32 %41, -1
  %43 = sub nsw i32 %35, %39
  %44 = call i32 @llvm.abs.i32(i32 %43, i1 true)
  %45 = add nsw i32 %44, -1
  %46 = mul nsw i32 %45, %42
  %47 = call i32 (i8*, ...) @printf(i8* nonnull dereferenceable(1) getelementptr inbounds ([3 x i8], [3 x i8]* @.str, i64 0, i64 0), i32 %46)
  call void @llvm.lifetime.end.p0i8(i64 4, i8* nonnull %4) #5
  call void @llvm.lifetime.end.p0i8(i64 4, i8* nonnull %3) #5
  ret i32 0
}

; Function Attrs: argmemonly mustprogress nofree nosync nounwind willreturn
declare void @llvm.lifetime.start.p0i8(i64 immarg, i8* nocapture) #2

; Function Attrs: nofree nounwind
declare noundef i32 @__isoc99_scanf(i8* nocapture noundef readonly, ...) local_unnamed_addr #3

; Function Attrs: nofree nounwind
declare noundef i32 @printf(i8* nocapture noundef readonly, ...) local_unnamed_addr #3

; Function Attrs: argmemonly mustprogress nofree nosync nounwind willreturn
declare void @llvm.lifetime.end.p0i8(i64 immarg, i8* nocapture) #2

; Function Attrs: nofree nosync nounwind readnone speculatable willreturn
declare i32 @llvm.abs.i32(i32, i1 immarg) #4


!llvm.module.flags = !{!0, !1, !2, !3}
!llvm.ident = !{!4}

!0 = !{i32 1, !"wchar_size", i32 4}
!1 = !{i32 7, !"PIC Level", i32 2}
!2 = !{i32 7, !"PIE Level", i32 2}
!3 = !{i32 7, !"uwtable", i32 1}
!4 = !{!"clang version 13.0.0"}
!5 = !{!6, !6, i64 0}
!6 = !{!"int", !7, i64 0}
!7 = !{!"omnipotent char", !8, i64 0}
!8 = !{!"Simple C/C++ TBAA"}
!9 = distinct !{!9, !10}
!10 = !{!"llvm.loop.mustprogress"}
